; Function Attrs: mustprogress nounwind uwtable
define hidden noundef i32 @_ZNK4ncnn3Net23find_blob_index_by_nameEPKc(ptr noundef nonnull readonly align 8 captures(none) dereferenceable(80) %0, ptr noundef %1) local_unnamed_addr #0 align 2 {
  %3 = getelementptr inbounds nuw i8, ptr %0, i64 72
  %4 = load ptr, ptr %3, align 8, !tbaa !7
  %5 = getelementptr inbounds nuw i8, ptr %4, i64 8
  %6 = getelementptr inbounds nuw i8, ptr %4, i64 16
  %7 = load ptr, ptr %6, align 8, !tbaa !119
  %8 = load ptr, ptr %5, align 8, !tbaa !65
  %.not = icmp eq ptr %7, %8
  br i1 %.not, label %._crit_edge, label %.lr.ph

.lr.ph:                                           ; preds = %2, %13
  %9 = phi ptr [ %19, %13 ], [ %8, %2 ]
  %.01218 = phi i64 [ %14, %13 ], [ 0, %2 ]
  %10 = getelementptr inbounds nuw %"class.ncnn::Blob", ptr %9, i64 %.01218
  %11 = tail call noundef i32 @_ZNKSt7__cxx1112basic_stringIcSt11char_traitsIcESaIcEE7compareEPKc(ptr noundef nonnull align 8 dereferenceable(32) %10, ptr noundef %1) #26
  %12 = icmp eq i32 %11, 0
  br i1 %12, label %25, label %13

13:                                               ; preds = %.lr.ph
  %14 = add nuw i64 %.01218, 1
  %15 = load ptr, ptr %3, align 8, !tbaa !7
  %16 = getelementptr inbounds nuw i8, ptr %15, i64 8
  %17 = getelementptr inbounds nuw i8, ptr %15, i64 16
  %18 = load ptr, ptr %17, align 8, !tbaa !119
  %19 = load ptr, ptr %16, align 8, !tbaa !65
  %20 = ptrtoint ptr %18 to i64
  %21 = ptrtoint ptr %19 to i64
  %22 = sub i64 %20, %21
  %23 = sdiv exact i64 %22, 112
  %24 = icmp ult i64 %14, %23
  br i1 %24, label %.lr.ph, label %._crit_edge, !llvm.loop !177

25:                                               ; preds = %.lr.ph
  %26 = trunc i64 %.01218 to i32
  br label %30

._crit_edge:                                      ; preds = %13, %2
  %27 = load ptr, ptr @stderr, align 8, !tbaa !157
  %28 = tail call i32 (ptr, ptr, ...) @fprintf(ptr noundef %27, ptr noundef nonnull @.str.46, ptr noundef %1) #33
  %29 = load ptr, ptr @stderr, align 8, !tbaa !157
  %fputc = tail call i32 @fputc(i32 10, ptr %29)
  br label %30

30:                                               ; preds = %25, %._crit_edge
  %.3 = phi i32 [ %26, %25 ], [ -1, %._crit_edge ]
  ret i32 %.3
}